; Function Attrs: mustprogress uwtable
define internal fastcc void @_ZN2cvL13parallel_for_ERKNS_5RangeESt8functionIFvS2_EEd(ptr noundef nonnull align 4 dereferenceable(8) %0, ptr noundef %1) unnamed_addr #3 personality ptr @__gxx_personality_v0 {
  %3 = alloca %"class.cv::ParallelLoopBodyLambdaWrapper", align 8
  %4 = alloca %"class.std::function", align 8
  %5 = getelementptr inbounds i8, ptr %4, i64 16
  %6 = getelementptr inbounds i8, ptr %4, i64 24
  %7 = getelementptr inbounds i8, ptr %1, i64 16
  call void @llvm.memset.p0.i64(ptr noundef nonnull align 8 dereferenceable(32) %4, i8 0, i64 32, i1 false)
  %8 = load ptr, ptr %7, align 8
  %.not.i.i.not.i = icmp eq ptr %8, null
  br i1 %.not.i.i.not.i, label %_ZNSt8functionIFvRKN2cv5RangeEEEC2ERKS5_.exit.thread, label %11

_ZNSt8functionIFvRKN2cv5RangeEEEC2ERKS5_.exit.thread: ; preds = %2
  store ptr getelementptr inbounds inrange(-16, 24) (i8, ptr @_ZTVN2cv29ParallelLoopBodyLambdaWrapperE, i64 16), ptr %3, align 8
  %9 = getelementptr inbounds i8, ptr %3, i64 8
  %10 = getelementptr inbounds i8, ptr %3, i64 24
  call void @llvm.memset.p0.i64(ptr noundef nonnull align 8 dereferenceable(32) %9, i8 0, i64 32, i1 false)
  br label %_ZN2cv29ParallelLoopBodyLambdaWrapperC2ESt8functionIFvRKNS_5RangeEEE.exit

11:                                               ; preds = %2
  %12 = invoke noundef zeroext i1 %8(ptr noundef nonnull align 8 dereferenceable(16) %4, ptr noundef nonnull align 8 dereferenceable(16) %1, i32 noundef 2)
          to label %_ZNSt8functionIFvRKN2cv5RangeEEEC2ERKS5_.exit unwind label %13

13:                                               ; preds = %11
  %14 = landingpad { ptr, i32 }
          cleanup
  %15 = load ptr, ptr %5, align 8
  %.not.i.i = icmp eq ptr %15, null
  br i1 %.not.i.i, label %common.resume, label %16

16:                                               ; preds = %13
  %17 = invoke noundef zeroext i1 %15(ptr noundef nonnull align 8 dereferenceable(16) %4, ptr noundef nonnull align 8 dereferenceable(16) %4, i32 noundef 3)
          to label %common.resume unwind label %18

18:                                               ; preds = %16
  %19 = landingpad { ptr, i32 }
          catch ptr null
  %20 = extractvalue { ptr, i32 } %19, 0
  call void @__clang_call_terminate(ptr %20) #31
  unreachable

common.resume:                                    ; preds = %56, %.body, %13, %16
  %common.resume.op = phi { ptr, i32 } [ %14, %16 ], [ %14, %13 ], [ %.pn, %.body ], [ %.pn, %56 ]
  resume { ptr, i32 } %common.resume.op

_ZNSt8functionIFvRKN2cv5RangeEEEC2ERKS5_.exit:    ; preds = %11
  %21 = getelementptr inbounds i8, ptr %1, i64 24
  %22 = load ptr, ptr %21, align 8
  store ptr %22, ptr %6, align 8
  %23 = load ptr, ptr %7, align 8
  store ptr %23, ptr %5, align 8
  store ptr getelementptr inbounds inrange(-16, 24) (i8, ptr @_ZTVN2cv29ParallelLoopBodyLambdaWrapperE, i64 16), ptr %3, align 8
  %24 = getelementptr inbounds i8, ptr %3, i64 8
  %25 = getelementptr inbounds i8, ptr %3, i64 24
  call void @llvm.memset.p0.i64(ptr noundef nonnull align 8 dereferenceable(32) %24, i8 0, i64 32, i1 false)
  %.not.i.i.not.i.i = icmp eq ptr %23, null
  br i1 %.not.i.i.not.i.i, label %_ZN2cv29ParallelLoopBodyLambdaWrapperC2ESt8functionIFvRKNS_5RangeEEE.exit, label %26

26:                                               ; preds = %_ZNSt8functionIFvRKN2cv5RangeEEEC2ERKS5_.exit
  %27 = invoke noundef zeroext i1 %23(ptr noundef nonnull align 8 dereferenceable(16) %24, ptr noundef nonnull align 8 dereferenceable(16) %4, i32 noundef 2)
          to label %28 unwind label %30

28:                                               ; preds = %26
  %29 = load <2 x ptr>, ptr %5, align 8
  store <2 x ptr> %29, ptr %25, align 8
  br label %_ZN2cv29ParallelLoopBodyLambdaWrapperC2ESt8functionIFvRKNS_5RangeEEE.exit

30:                                               ; preds = %26
  %31 = landingpad { ptr, i32 }
          cleanup
  %32 = load ptr, ptr %25, align 8
  %.not.i.i.i = icmp eq ptr %32, null
  br i1 %.not.i.i.i, label %.body.i, label %33

33:                                               ; preds = %30
  %34 = invoke noundef zeroext i1 %32(ptr noundef nonnull align 8 dereferenceable(16) %24, ptr noundef nonnull align 8 dereferenceable(16) %24, i32 noundef 3)
          to label %.body.i unwind label %35

35:                                               ; preds = %33
  %36 = landingpad { ptr, i32 }
          catch ptr null
  %37 = extractvalue { ptr, i32 } %36, 0
  call void @__clang_call_terminate(ptr %37) #31
  unreachable

.body.i:                                          ; preds = %33, %30
  call void @_ZN2cv16ParallelLoopBodyD2Ev(ptr noundef nonnull align 8 dereferenceable(8) %3) #27
  br label %.body

_ZN2cv29ParallelLoopBodyLambdaWrapperC2ESt8functionIFvRKNS_5RangeEEE.exit: ; preds = %_ZNSt8functionIFvRKN2cv5RangeEEEC2ERKS5_.exit.thread, %28, %_ZNSt8functionIFvRKN2cv5RangeEEEC2ERKS5_.exit
  %38 = phi ptr [ %10, %_ZNSt8functionIFvRKN2cv5RangeEEEC2ERKS5_.exit.thread ], [ %25, %28 ], [ %25, %_ZNSt8functionIFvRKN2cv5RangeEEEC2ERKS5_.exit ]
  %39 = phi ptr [ %9, %_ZNSt8functionIFvRKN2cv5RangeEEEC2ERKS5_.exit.thread ], [ %24, %28 ], [ %24, %_ZNSt8functionIFvRKN2cv5RangeEEEC2ERKS5_.exit ]
  invoke void @_ZN2cv13parallel_for_ERKNS_5RangeERKNS_16ParallelLoopBodyEd(ptr noundef nonnull align 4 dereferenceable(8) %0, ptr noundef nonnull align 8 dereferenceable(8) %3, double noundef -1.000000e+00)
          to label %40 unwind label %53

40:                                               ; preds = %_ZN2cv29ParallelLoopBodyLambdaWrapperC2ESt8functionIFvRKNS_5RangeEEE.exit
  store ptr getelementptr inbounds inrange(-16, 24) (i8, ptr @_ZTVN2cv29ParallelLoopBodyLambdaWrapperE, i64 16), ptr %3, align 8
  %41 = load ptr, ptr %38, align 8
  %.not.i.i.i5 = icmp eq ptr %41, null
  br i1 %.not.i.i.i5, label %_ZN2cv29ParallelLoopBodyLambdaWrapperD2Ev.exit, label %42

42:                                               ; preds = %40
  %43 = invoke noundef zeroext i1 %41(ptr noundef nonnull align 8 dereferenceable(16) %39, ptr noundef nonnull align 8 dereferenceable(16) %39, i32 noundef 3)
          to label %_ZN2cv29ParallelLoopBodyLambdaWrapperD2Ev.exit unwind label %44

44:                                               ; preds = %42
  %45 = landingpad { ptr, i32 }
          catch ptr null
  %46 = extractvalue { ptr, i32 } %45, 0
  call void @__clang_call_terminate(ptr %46) #31
  unreachable

_ZN2cv29ParallelLoopBodyLambdaWrapperD2Ev.exit:   ; preds = %40, %42
  call void @_ZN2cv16ParallelLoopBodyD2Ev(ptr noundef nonnull align 8 dereferenceable(8) %3) #27
  %47 = load ptr, ptr %5, align 8
  %.not.i.i6 = icmp eq ptr %47, null
  br i1 %.not.i.i6, label %_ZNSt8functionIFvRKN2cv5RangeEEED2Ev.exit, label %48

48:                                               ; preds = %_ZN2cv29ParallelLoopBodyLambdaWrapperD2Ev.exit
  %49 = invoke noundef zeroext i1 %47(ptr noundef nonnull align 8 dereferenceable(16) %4, ptr noundef nonnull align 8 dereferenceable(16) %4, i32 noundef 3)
          to label %_ZNSt8functionIFvRKN2cv5RangeEEED2Ev.exit unwind label %50

50:                                               ; preds = %48
  %51 = landingpad { ptr, i32 }
          catch ptr null
  %52 = extractvalue { ptr, i32 } %51, 0
  call void @__clang_call_terminate(ptr %52) #31
  unreachable

_ZNSt8functionIFvRKN2cv5RangeEEED2Ev.exit:        ; preds = %_ZN2cv29ParallelLoopBodyLambdaWrapperD2Ev.exit, %48
  ret void

53:                                               ; preds = %_ZN2cv29ParallelLoopBodyLambdaWrapperC2ESt8functionIFvRKNS_5RangeEEE.exit
  %54 = landingpad { ptr, i32 }
          cleanup
  call void @_ZN2cv29ParallelLoopBodyLambdaWrapperD2Ev(ptr noundef nonnull align 8 dereferenceable(40) %3) #27
  br label %.body

.body:                                            ; preds = %.body.i, %53
  %.pn = phi { ptr, i32 } [ %54, %53 ], [ %31, %.body.i ]
  %55 = load ptr, ptr %5, align 8
  %.not.i.i8 = icmp eq ptr %55, null
  br i1 %.not.i.i8, label %common.resume, label %56

56:                                               ; preds = %.body
  %57 = invoke noundef zeroext i1 %55(ptr noundef nonnull align 8 dereferenceable(16) %4, ptr noundef nonnull align 8 dereferenceable(16) %4, i32 noundef 3)
          to label %common.resume unwind label %58

58:                                               ; preds = %56
  %59 = landingpad { ptr, i32 }
          catch ptr null
  %60 = extractvalue { ptr, i32 } %59, 0
  call void @__clang_call_terminate(ptr %60) #31
  unreachable
}